MPASM 5.86                          MAIN.ASM   4-6-2026  14:42:28         PAGE  1


LOC  OBJECT CODE     LINE SOURCE TEXT
  VALUE

                      00001 #include "p16f84a.inc"
                      00001         LIST
                      00002 
                      00003 ;==========================================================================
                      00004 ; Build date : Oct 24 2019
                      00005 ;  MPASM PIC16F84A processor include
                      00006 ; 
                      00007 ;  (c) Copyright 1999-2019 Microchip Technology, All rights reserved
                      00008 ;==========================================================================
                      00009 
                      00209         LIST
                      00002 
                      00003 ; CONFIG
                      00004 ; __config 0x3FFB
2007   3FFB           00005  __CONFIG _FOSC_EXTRC & _WDTE_OFF & _PWRTE_OFF & _CP_OFF
                      00006 
                      00007  
Warning[205]: Found directive in column 1. (CBLOCK)
                      00008 CBLOCK  0x20
  00000020            00009     COUNT1
  00000021            00010     COUNT2
  00000022            00011     COUNT3
  00000023            00012     COUNT4
Warning[205]: Found directive in column 1. (ENDC)
                      00013 ENDC
Warning[205]: Found directive in column 1. (CBLOCK)
                      00014 CBLOCK  0x30
  00000030            00015     ARBG
  00000031            00016     ARBY
  00000032            00017     AGBR
  00000033            00018     AYBR
Warning[205]: Found directive in column 1. (ENDC)
                      00019 ENDC
                      00020     ORG     0x00
0000   2???           00021     GOTO    SETUP
                      00022     ORG     0x04
0004   0009           00023     RETFIE
                      00024     
0005                  00025 SETPORT
0005   1683           00026     BSF     STATUS, RP0 ; Switch to BANK1
Message[302]: Register in operand not in bank 0.  Ensure that bank bits are correct.
0006   0186           00027     CLRF    TRISB       ; Set Port B to output
0007   1283           00028     BCF     STATUS, RP0 ; Switch to BANK0
0008   0008           00029     RETURN
                      00030 
0009                  00031 SETUP
0009   2???           00032     CALL    SETPORT
                      00033     ; Designating Codes for the lights
000A   3021           00034     MOVLW   0x21
000B   00B0           00035     MOVWF   ARBG
000C   3011           00036     MOVLW   0x11
000D   00B1           00037     MOVWF   ARBY
000E   300C           00038     MOVLW   0x0C
MPASM 5.86                          MAIN.ASM   4-6-2026  14:42:28         PAGE  2


LOC  OBJECT CODE     LINE SOURCE TEXT
  VALUE

000F   00B2           00039     MOVWF   AGBR
0010   300A           00040     MOVLW   0x0A
0011   00B3           00041     MOVWF   AYBR
                      00042     ; Move to the Main Loop
0012   2???           00043     GOTO    MAIN
                      00044 
0013                  00045 DELAY
                      00046     ; Variable Delay Function (1s-255s)
                      00047     ; Move the amount of time wanted to be delay for
                      00048     ; to the W register
0013   00A0           00049     MOVWF   COUNT1
0014                  00050 L1
0014   303B           00051     MOVLW   D'59'
0015   00A1           00052     MOVWF   COUNT2
0016                  00053 L2
0016   304A           00054     MOVLW   D'74'
0017   00A2           00055     MOVWF   COUNT3
0018                  00056 L3
0018   304B           00057     MOVLW   D'75'
0019   00A3           00058     MOVWF   COUNT4
001A                  00059 L4
Message[305]: Using default destination of 1 (file).
001A   0BA3           00060     DECFSZ  COUNT4
001B   2???           00061     GOTO    L4
                      00062     
Message[305]: Using default destination of 1 (file).
001C   0BA2           00063     DECFSZ  COUNT3
001D   2???           00064     GOTO    L3
                      00065     
Message[305]: Using default destination of 1 (file).
001E   0BA1           00066     DECFSZ  COUNT2
001F   2???           00067     GOTO    L2
                      00068     
Message[305]: Using default destination of 1 (file).
0020   0BA0           00069     DECFSZ  COUNT1
0021   2???           00070     GOTO    L1
0022   0008           00071     RETURN
                      00072     
0023                  00073 MAIN
                      00074     ; B Street Green / A Ave Red
0023   0830           00075     MOVF    ARBG, W
0024   0086           00076     MOVWF   PORTB
0025   301A           00077     MOVLW   D'26'
0026   2???           00078     CALL    DELAY
                      00079 
                      00080     ; B Street Yellow / A Ave Red
0027   0831           00081     MOVF    ARBY, W
0028   0086           00082     MOVWF   PORTB
0029   3004           00083     MOVLW   D'4'
002A   2???           00084     CALL    DELAY
                      00085 
                      00086     ; B Street Red / A Ave Green
002B   0832           00087     MOVF    AGBR, W
MPASM 5.86                          MAIN.ASM   4-6-2026  14:42:28         PAGE  3


LOC  OBJECT CODE     LINE SOURCE TEXT
  VALUE

002C   0086           00088     MOVWF   PORTB
002D   3038           00089     MOVLW   D'56'
002E   2???           00090     CALL    DELAY
                      00091 
                      00092     ; B Street Red / A Ave Yellow
002F   0833           00093     MOVF    AYBR, W
0030   0086           00094     MOVWF   PORTB
0031   3004           00095     MOVLW   D'4'
0032   2???           00096     CALL    DELAY
                      00097 
0033   2???           00098     GOTO    MAIN
3FFB                  00099     END
MPASM 5.86                          MAIN.ASM   4-6-2026  14:42:28         PAGE  4


SYMBOL TABLE
  LABEL                             VALUE 

AGBR                              00000032
ARBG                              00000030
ARBY                              00000031
AYBR                              00000033
C                                 00000000
COUNT1                            00000020
COUNT2                            00000021
COUNT3                            00000022
COUNT4                            00000023
DC                                00000001
DELAY                             00000013
EEADR                             00000009
EECON1                            00000088
EECON2                            00000089
EEDATA                            00000008
EEIE                              00000006
EEIF                              00000004
F                                 00000001
FSR                               00000004
GIE                               00000007
INDF                              00000000
INTCON                            0000000B
INTE                              00000004
INTEDG                            00000006
INTF                              00000001
IRP                               00000007
L1                                00000014
L2                                00000016
L3                                00000018
L4                                0000001A
MAIN                              00000023
NOT_PD                            00000003
NOT_RBPU                          00000007
NOT_TO                            00000004
OPTION_REG                        00000081
PCL                               00000002
PCLATH                            0000000A
PORTA                             00000005
PORTB                             00000006
PS0                               00000000
PS1                               00000001
PS2                               00000002
PSA                               00000003
RA0                               00000000
RA1                               00000001
RA2                               00000002
RA3                               00000003
RA4                               00000004
RB0                               00000000
RB1                               00000001
RB2                               00000002
RB3                               00000003
RB4                               00000004
MPASM 5.86                          MAIN.ASM   4-6-2026  14:42:28         PAGE  5


SYMBOL TABLE
  LABEL                             VALUE 

RB5                               00000005
RB6                               00000006
RB7                               00000007
RBIE                              00000003
RBIF                              00000000
RD                                00000000
RP0                               00000005
RP1                               00000006
SETPORT                           00000005
SETUP                             00000009
STATUS                            00000003
T0CS                              00000005
T0IE                              00000005
T0IF                              00000002
T0SE                              00000004
TMR0                              00000001
TMR0IE                            00000005
TMR0IF                            00000002
TRISA                             00000085
TRISA0                            00000000
TRISA1                            00000001
TRISA2                            00000002
TRISA3                            00000003
TRISA4                            00000004
TRISB                             00000086
TRISB0                            00000000
TRISB1                            00000001
TRISB2                            00000002
TRISB3                            00000003
TRISB4                            00000004
TRISB5                            00000005
TRISB6                            00000006
TRISB7                            00000007
W                                 00000000
WR                                00000001
WREN                              00000002
WRERR                             00000003
Z                                 00000002
_CONFIG                           00002007
_CP_OFF                           00003FFF
_CP_ON                            0000000F
_DEVID1                           00002006
_FOSC_EXTRC                       00003FFF
_FOSC_HS                          00003FFE
_FOSC_LP                          00003FFC
_FOSC_XT                          00003FFD
_HS_OSC                           00003FFE
_IDLOC0                           00002000
_IDLOC1                           00002001
_IDLOC2                           00002002
_IDLOC3                           00002003
_LP_OSC                           00003FFC
_PWRTE_OFF                        00003FFF
MPASM 5.86                          MAIN.ASM   4-6-2026  14:42:28         PAGE  6


SYMBOL TABLE
  LABEL                             VALUE 

_PWRTE_ON                         00003FF7
_RC_OSC                           00003FFF
_WDTE_OFF                         00003FFB
_WDTE_ON                          00003FFF
_WDT_OFF                          00003FFB
_WDT_ON                           00003FFF
_XT_OSC                           00003FFD
__16F84A                          00000001
__DEBUG                           
__MPLAB_DEBUGGER_SIMULATOR        1

Errors   :     0
Warnings :     4 reported,     0 suppressed
Messages :     5 reported,     0 suppressed

